target datalayout = "e-m:e-p270:32:32-p271:32:32-p272:64:64-i64:64-i128:128-f80:128-n8:16:32:64-S128"
target triple = "x86_64-pc-linux-gnu"

%struct.cbs_st = type { ptr, i64 }

@.str = private unnamed_addr constant [118 x i8] c"generated/home/dtcxzyw/WorkSpace/Projects/compilers/llvm-opt-benchmark/bench/libquic/libquic/boringssl/ssl/ssl_asn1.c\00", align 1

; Function Attrs: nounwind uwtable
define internal i32 @SSL_SESSION_parse_octet_string(ptr noundef %0, ptr noundef %1, ptr noundef %2, i32 noundef %3) #0 {
  %5 = alloca i32, align 4
  %6 = alloca ptr, align 8
  %7 = alloca ptr, align 8
  %8 = alloca ptr, align 8
  %9 = alloca i32, align 4
  %10 = alloca %struct.cbs_st, align 8
  %11 = alloca i32, align 4
  store ptr %0, ptr %6, align 8, !tbaa !52
  store ptr %1, ptr %7, align 8, !tbaa !11
  store ptr %2, ptr %8, align 8, !tbaa !13
  store i32 %3, ptr %9, align 4, !tbaa !15
  call void @llvm.lifetime.start.p0(i64 16, ptr %10) #6
  %12 = load ptr, ptr %6, align 8, !tbaa !52
  %13 = load i32, ptr %9, align 4, !tbaa !15
  %14 = call i32 @CBS_get_optional_asn1_octet_string(ptr noundef %12, ptr noundef %10, ptr noundef null, i32 noundef %13)
  %15 = icmp ne i32 %14, 0
  br i1 %15, label %17, label %16

16:                                               ; preds = %4
  call void @ERR_put_error(i32 noundef 16, i32 noundef 0, i32 noundef 160, ptr noundef @.str, i32 noundef 443)
  store i32 0, ptr %5, align 4
  store i32 1, ptr %11, align 4
  br label %24

17:                                               ; preds = %4
  %18 = load ptr, ptr %7, align 8, !tbaa !11
  %19 = load ptr, ptr %8, align 8, !tbaa !13
  %20 = call i32 @CBS_stow(ptr noundef %10, ptr noundef %18, ptr noundef %19)
  %21 = icmp ne i32 %20, 0
  br i1 %21, label %23, label %22

22:                                               ; preds = %17
  call void @ERR_put_error(i32 noundef 16, i32 noundef 0, i32 noundef 65, ptr noundef @.str, i32 noundef 447)
  store i32 0, ptr %5, align 4
  store i32 1, ptr %11, align 4
  br label %24

23:                                               ; preds = %17
  store i32 1, ptr %5, align 4
  store i32 1, ptr %11, align 4
  br label %24

24:                                               ; preds = %23, %22, %16
  call void @llvm.lifetime.end.p0(i64 16, ptr %10) #6
  %25 = load i32, ptr %5, align 4
  ret i32 %25
}