; Function Attrs: nounwind uwtable
define internal fastcc range(i32 0, 2) i32 @SSL_SESSION_parse_octet_string(ptr noundef nonnull %0, ptr noundef nonnull %1, ptr noundef nonnull %2, i32 noundef range(i32 170, 177) %3) unnamed_addr #0 {
  %5 = alloca %struct.cbs_st, align 8
  call void @llvm.lifetime.start.p0(i64 16, ptr nonnull %5) #7
  %6 = call i32 @CBS_get_optional_asn1_octet_string(ptr noundef nonnull %0, ptr noundef nonnull %5, ptr noundef null, i32 noundef %3) #7
  %.not = icmp eq i32 %6, 0
  br i1 %.not, label %7, label %8

7:                                                ; preds = %4
  call void @ERR_put_error(i32 noundef 16, i32 noundef 0, i32 noundef 160, ptr noundef nonnull @.str, i32 noundef 443) #7
  br label %11

8:                                                ; preds = %4
  %9 = call i32 @CBS_stow(ptr noundef nonnull %5, ptr noundef nonnull %1, ptr noundef nonnull %2) #7
  %.not4 = icmp eq i32 %9, 0
  br i1 %.not4, label %10, label %11

10:                                               ; preds = %8
  call void @ERR_put_error(i32 noundef 16, i32 noundef 0, i32 noundef 65, ptr noundef nonnull @.str, i32 noundef 447) #7
  br label %11

11:                                               ; preds = %8, %10, %7
  %.0 = phi i32 [ 0, %10 ], [ 0, %7 ], [ 1, %8 ]
  call void @llvm.lifetime.end.p0(i64 16, ptr nonnull %5) #7
  ret i32 %.0
}